#include <math.h>
#include <stdio.h>
#include <stdlib.h>
#include <string.h>

int  main()
{int n,i,j,a[500][500],x=0,y=0;
 scanf("%d",&n);
 for(i=0;i<n;i++)
 {
  for(j=0;j<n;j++)
   scanf("%d",&a[i][j]);
 }

for(i=0;i<n;i++)
 {
  for(j=0;j<n;j++)
  {
   if(a[i][j]==0)
    x++;
  }
  if(x!=0)
   break;
 }
    for(j=0;j<n;j++)
 {
  for(i=0;i<n;i++)
  {
   if(a[i][j]==0)
    y++;
  }
  if(y!=0)
   break;
 }
 printf("%d\n",(x-2)*(y-2));


return 0;


}